target datalayout = "e-m:e-p270:32:32-p271:32:32-p272:64:64-i64:64-i128:128-f80:128-n8:16:32:64-S128"
target triple = "x86_64-pc-linux-gnu"

%struct._timelib_tzinfo = type { ptr, %struct.anon, %struct.anon.0, ptr, ptr, ptr, ptr, ptr, i8, %struct._tlocinfo, ptr, ptr }
%struct.anon = type { i32, i32, i32, i32, i32, i32 }
%struct.anon.0 = type { i64, i64, i64, i64, i64, i64 }
%struct._tlocinfo = type { [3 x i8], double, double, ptr }

; Function Attrs: inlinehint nounwind uwtable
define internal i32 @timelib_conv_int_unsigned(i32 noundef %0) #9 {
  %2 = alloca i32, align 4
  store i32 %0, ptr %2, align 4, !tbaa !32
  %3 = load i32, ptr %2, align 4, !tbaa !32
  %4 = and i32 %3, 255
  %5 = shl i32 %4, 24
  %6 = load i32, ptr %2, align 4, !tbaa !32
  %7 = and i32 %6, 65280
  %8 = shl i32 %7, 8
  %9 = add i32 %5, %8
  %10 = load i32, ptr %2, align 4, !tbaa !32
  %11 = and i32 %10, 16711680
  %12 = lshr i32 %11, 8
  %13 = add i32 %9, %12
  %14 = load i32, ptr %2, align 4, !tbaa !32
  %15 = and i32 %14, -16777216
  %16 = lshr i32 %15, 24
  %17 = add i32 %13, %16
  ret i32 %17
}

; Function Attrs: nounwind uwtable
define internal void @read_location(ptr noundef %0, ptr noundef %1) #0 {
  %3 = alloca ptr, align 8
  %4 = alloca ptr, align 8
  %5 = alloca [3 x i32], align 4
  %6 = alloca i32, align 4
  store ptr %0, ptr %3, align 8, !tbaa !84
  store ptr %1, ptr %4, align 8, !tbaa !4
  call void @llvm.lifetime.start.p0(i64 12, ptr %5) #11
  call void @llvm.lifetime.start.p0(i64 4, ptr %6) #11
  %7 = load ptr, ptr %3, align 8, !tbaa !84
  %8 = load ptr, ptr %7, align 8, !tbaa !31
  call void @llvm.memcpy.p0.p0.i64(ptr align 4 %5, ptr align 1 %8, i64 12, i1 false)
  %9 = getelementptr inbounds [3 x i32], ptr %5, i64 0, i64 0
  %10 = load i32, ptr %9, align 4, !tbaa !32
  %11 = call i32 @timelib_conv_int_unsigned(i32 noundef %10)
  %12 = uitofp i32 %11 to double
  %13 = load ptr, ptr %4, align 8, !tbaa !4
  %14 = getelementptr inbounds nuw %struct._timelib_tzinfo, ptr %13, i32 0, i32 9
  %15 = getelementptr inbounds nuw %struct._tlocinfo, ptr %14, i32 0, i32 1
  store double %12, ptr %15, align 8, !tbaa !9
  %16 = load ptr, ptr %4, align 8, !tbaa !4
  %17 = getelementptr inbounds nuw %struct._timelib_tzinfo, ptr %16, i32 0, i32 9
  %18 = getelementptr inbounds nuw %struct._tlocinfo, ptr %17, i32 0, i32 1
  %19 = load double, ptr %18, align 8, !tbaa !9
  %20 = fdiv double %19, 1.000000e+05
  %21 = fsub double %20, 9.000000e+01
  %22 = load ptr, ptr %4, align 8, !tbaa !4
  %23 = getelementptr inbounds nuw %struct._timelib_tzinfo, ptr %22, i32 0, i32 9
  %24 = getelementptr inbounds nuw %struct._tlocinfo, ptr %23, i32 0, i32 1
  store double %21, ptr %24, align 8, !tbaa !9
  %25 = getelementptr inbounds [3 x i32], ptr %5, i64 0, i64 1
  %26 = load i32, ptr %25, align 4, !tbaa !32
  %27 = call i32 @timelib_conv_int_unsigned(i32 noundef %26)
  %28 = uitofp i32 %27 to double
  %29 = load ptr, ptr %4, align 8, !tbaa !4
  %30 = getelementptr inbounds nuw %struct._timelib_tzinfo, ptr %29, i32 0, i32 9
  %31 = getelementptr inbounds nuw %struct._tlocinfo, ptr %30, i32 0, i32 2
  store double %28, ptr %31, align 8, !tbaa !22
  %32 = load ptr, ptr %4, align 8, !tbaa !4
  %33 = getelementptr inbounds nuw %struct._timelib_tzinfo, ptr %32, i32 0, i32 9
  %34 = getelementptr inbounds nuw %struct._tlocinfo, ptr %33, i32 0, i32 2
  %35 = load double, ptr %34, align 8, !tbaa !22
  %36 = fdiv double %35, 1.000000e+05
  %37 = fsub double %36, 1.800000e+02
  %38 = load ptr, ptr %4, align 8, !tbaa !4
  %39 = getelementptr inbounds nuw %struct._timelib_tzinfo, ptr %38, i32 0, i32 9
  %40 = getelementptr inbounds nuw %struct._tlocinfo, ptr %39, i32 0, i32 2
  store double %37, ptr %40, align 8, !tbaa !22
  %41 = getelementptr inbounds [3 x i32], ptr %5, i64 0, i64 2
  %42 = load i32, ptr %41, align 4, !tbaa !32
  %43 = call i32 @timelib_conv_int_unsigned(i32 noundef %42)
  store i32 %43, ptr %6, align 4, !tbaa !32
  %44 = load ptr, ptr %3, align 8, !tbaa !84
  %45 = load ptr, ptr %44, align 8, !tbaa !31
  %46 = getelementptr inbounds nuw i8, ptr %45, i64 12
  store ptr %46, ptr %44, align 8, !tbaa !31
  %47 = load i32, ptr %6, align 4, !tbaa !32
  %48 = add i32 %47, 1
  %49 = call i1 @llvm.is.constant.i32(i32 %48)
  br i1 %49, label %50, label %307

50:                                               ; preds = %2
  %51 = load i32, ptr %6, align 4, !tbaa !32
  %52 = add i32 %51, 1
  %53 = icmp ule i32 %52, 8
  br i1 %53, label %54, label %56

54:                                               ; preds = %50
  %55 = call noalias ptr @_emalloc_8()
  br label %305

56:                                               ; preds = %50
  %57 = load i32, ptr %6, align 4, !tbaa !32
  %58 = add i32 %57, 1
  %59 = icmp ule i32 %58, 16
  br i1 %59, label %60, label %62

60:                                               ; preds = %56
  %61 = call noalias ptr @_emalloc_16()
  br label %303

62:                                               ; preds = %56
  %63 = load i32, ptr %6, align 4, !tbaa !32
  %64 = add i32 %63, 1
  %65 = icmp ule i32 %64, 24
  br i1 %65, label %66, label %68

66:                                               ; preds = %62
  %67 = call noalias ptr @_emalloc_24()
  br label %301

68:                                               ; preds = %62
  %69 = load i32, ptr %6, align 4, !tbaa !32
  %70 = add i32 %69, 1
  %71 = icmp ule i32 %70, 32
  br i1 %71, label %72, label %74

72:                                               ; preds = %68
  %73 = call noalias ptr @_emalloc_32()
  br label %299

74:                                               ; preds = %68
  %75 = load i32, ptr %6, align 4, !tbaa !32
  %76 = add i32 %75, 1
  %77 = icmp ule i32 %76, 40
  br i1 %77, label %78, label %80

78:                                               ; preds = %74
  %79 = call noalias ptr @_emalloc_40()
  br label %297

80:                                               ; preds = %74
  %81 = load i32, ptr %6, align 4, !tbaa !32
  %82 = add i32 %81, 1
  %83 = icmp ule i32 %82, 48
  br i1 %83, label %84, label %86

84:                                               ; preds = %80
  %85 = call noalias ptr @_emalloc_48()
  br label %295

86:                                               ; preds = %80
  %87 = load i32, ptr %6, align 4, !tbaa !32
  %88 = add i32 %87, 1
  %89 = icmp ule i32 %88, 56
  br i1 %89, label %90, label %92

90:                                               ; preds = %86
  %91 = call noalias ptr @_emalloc_56()
  br label %293

92:                                               ; preds = %86
  %93 = load i32, ptr %6, align 4, !tbaa !32
  %94 = add i32 %93, 1
  %95 = icmp ule i32 %94, 64
  br i1 %95, label %96, label %98

96:                                               ; preds = %92
  %97 = call noalias ptr @_emalloc_64()
  br label %291

98:                                               ; preds = %92
  %99 = load i32, ptr %6, align 4, !tbaa !32
  %100 = add i32 %99, 1
  %101 = icmp ule i32 %100, 80
  br i1 %101, label %102, label %104

102:                                              ; preds = %98
  %103 = call noalias ptr @_emalloc_80()
  br label %289

104:                                              ; preds = %98
  %105 = load i32, ptr %6, align 4, !tbaa !32
  %106 = add i32 %105, 1
  %107 = icmp ule i32 %106, 96
  br i1 %107, label %108, label %110

108:                                              ; preds = %104
  %109 = call noalias ptr @_emalloc_96()
  br label %287

110:                                              ; preds = %104
  %111 = load i32, ptr %6, align 4, !tbaa !32
  %112 = add i32 %111, 1
  %113 = icmp ule i32 %112, 112
  br i1 %113, label %114, label %116

114:                                              ; preds = %110
  %115 = call noalias ptr @_emalloc_112()
  br label %285

116:                                              ; preds = %110
  %117 = load i32, ptr %6, align 4, !tbaa !32
  %118 = add i32 %117, 1
  %119 = icmp ule i32 %118, 128
  br i1 %119, label %120, label %122

120:                                              ; preds = %116
  %121 = call noalias ptr @_emalloc_128()
  br label %283

122:                                              ; preds = %116
  %123 = load i32, ptr %6, align 4, !tbaa !32
  %124 = add i32 %123, 1
  %125 = icmp ule i32 %124, 160
  br i1 %125, label %126, label %128

126:                                              ; preds = %122
  %127 = call noalias ptr @_emalloc_160()
  br label %281

128:                                              ; preds = %122
  %129 = load i32, ptr %6, align 4, !tbaa !32
  %130 = add i32 %129, 1
  %131 = icmp ule i32 %130, 192
  br i1 %131, label %132, label %134

132:                                              ; preds = %128
  %133 = call noalias ptr @_emalloc_192()
  br label %279

134:                                              ; preds = %128
  %135 = load i32, ptr %6, align 4, !tbaa !32
  %136 = add i32 %135, 1
  %137 = icmp ule i32 %136, 224
  br i1 %137, label %138, label %140

138:                                              ; preds = %134
  %139 = call noalias ptr @_emalloc_224()
  br label %277

140:                                              ; preds = %134
  %141 = load i32, ptr %6, align 4, !tbaa !32
  %142 = add i32 %141, 1
  %143 = icmp ule i32 %142, 256
  br i1 %143, label %144, label %146

144:                                              ; preds = %140
  %145 = call noalias ptr @_emalloc_256()
  br label %275

146:                                              ; preds = %140
  %147 = load i32, ptr %6, align 4, !tbaa !32
  %148 = add i32 %147, 1
  %149 = icmp ule i32 %148, 320
  br i1 %149, label %150, label %152

150:                                              ; preds = %146
  %151 = call noalias ptr @_emalloc_320()
  br label %273

152:                                              ; preds = %146
  %153 = load i32, ptr %6, align 4, !tbaa !32
  %154 = add i32 %153, 1
  %155 = icmp ule i32 %154, 384
  br i1 %155, label %156, label %158

156:                                              ; preds = %152
  %157 = call noalias ptr @_emalloc_384()
  br label %271

158:                                              ; preds = %152
  %159 = load i32, ptr %6, align 4, !tbaa !32
  %160 = add i32 %159, 1
  %161 = icmp ule i32 %160, 448
  br i1 %161, label %162, label %164

162:                                              ; preds = %158
  %163 = call noalias ptr @_emalloc_448()
  br label %269

164:                                              ; preds = %158
  %165 = load i32, ptr %6, align 4, !tbaa !32
  %166 = add i32 %165, 1
  %167 = icmp ule i32 %166, 512
  br i1 %167, label %168, label %170

168:                                              ; preds = %164
  %169 = call noalias ptr @_emalloc_512()
  br label %267

170:                                              ; preds = %164
  %171 = load i32, ptr %6, align 4, !tbaa !32
  %172 = add i32 %171, 1
  %173 = icmp ule i32 %172, 640
  br i1 %173, label %174, label %176

174:                                              ; preds = %170
  %175 = call noalias ptr @_emalloc_640()
  br label %265

176:                                              ; preds = %170
  %177 = load i32, ptr %6, align 4, !tbaa !32
  %178 = add i32 %177, 1
  %179 = icmp ule i32 %178, 768
  br i1 %179, label %180, label %182

180:                                              ; preds = %176
  %181 = call noalias ptr @_emalloc_768()
  br label %263

182:                                              ; preds = %176
  %183 = load i32, ptr %6, align 4, !tbaa !32
  %184 = add i32 %183, 1
  %185 = icmp ule i32 %184, 896
  br i1 %185, label %186, label %188

186:                                              ; preds = %182
  %187 = call noalias ptr @_emalloc_896()
  br label %261

188:                                              ; preds = %182
  %189 = load i32, ptr %6, align 4, !tbaa !32
  %190 = add i32 %189, 1
  %191 = icmp ule i32 %190, 1024
  br i1 %191, label %192, label %194

192:                                              ; preds = %188
  %193 = call noalias ptr @_emalloc_1024()
  br label %259

194:                                              ; preds = %188
  %195 = load i32, ptr %6, align 4, !tbaa !32
  %196 = add i32 %195, 1
  %197 = icmp ule i32 %196, 1280
  br i1 %197, label %198, label %200

198:                                              ; preds = %194
  %199 = call noalias ptr @_emalloc_1280()
  br label %257

200:                                              ; preds = %194
  %201 = load i32, ptr %6, align 4, !tbaa !32
  %202 = add i32 %201, 1
  %203 = icmp ule i32 %202, 1536
  br i1 %203, label %204, label %206

204:                                              ; preds = %200
  %205 = call noalias ptr @_emalloc_1536()
  br label %255

206:                                              ; preds = %200
  %207 = load i32, ptr %6, align 4, !tbaa !32
  %208 = add i32 %207, 1
  %209 = icmp ule i32 %208, 1792
  br i1 %209, label %210, label %212

210:                                              ; preds = %206
  %211 = call noalias ptr @_emalloc_1792()
  br label %253

212:                                              ; preds = %206
  %213 = load i32, ptr %6, align 4, !tbaa !32
  %214 = add i32 %213, 1
  %215 = icmp ule i32 %214, 2048
  br i1 %215, label %216, label %218

216:                                              ; preds = %212
  %217 = call noalias ptr @_emalloc_2048()
  br label %251

218:                                              ; preds = %212
  %219 = load i32, ptr %6, align 4, !tbaa !32
  %220 = add i32 %219, 1
  %221 = icmp ule i32 %220, 2560
  br i1 %221, label %222, label %224

222:                                              ; preds = %218
  %223 = call noalias ptr @_emalloc_2560()
  br label %249

224:                                              ; preds = %218
  %225 = load i32, ptr %6, align 4, !tbaa !32
  %226 = add i32 %225, 1
  %227 = icmp ule i32 %226, 3072
  br i1 %227, label %228, label %230

228:                                              ; preds = %224
  %229 = call noalias ptr @_emalloc_3072()
  br label %247

230:                                              ; preds = %224
  %231 = load i32, ptr %6, align 4, !tbaa !32
  %232 = add i32 %231, 1
  %233 = zext i32 %232 to i64
  %234 = icmp ule i64 %233, 2093056
  br i1 %234, label %235, label %240

235:                                              ; preds = %230
  %236 = load i32, ptr %6, align 4, !tbaa !32
  %237 = add i32 %236, 1
  %238 = zext i32 %237 to i64
  %239 = call noalias ptr @_emalloc_large(i64 noundef %238) #14
  br label %245

240:                                              ; preds = %230
  %241 = load i32, ptr %6, align 4, !tbaa !32
  %242 = add i32 %241, 1
  %243 = zext i32 %242 to i64
  %244 = call noalias ptr @_emalloc_huge(i64 noundef %243) #14
  br label %245

245:                                              ; preds = %240, %235
  %246 = phi ptr [ %239, %235 ], [ %244, %240 ]
  br label %247

247:                                              ; preds = %245, %228
  %248 = phi ptr [ %229, %228 ], [ %246, %245 ]
  br label %249

249:                                              ; preds = %247, %222
  %250 = phi ptr [ %223, %222 ], [ %248, %247 ]
  br label %251

251:                                              ; preds = %249, %216
  %252 = phi ptr [ %217, %216 ], [ %250, %249 ]
  br label %253

253:                                              ; preds = %251, %210
  %254 = phi ptr [ %211, %210 ], [ %252, %251 ]
  br label %255

255:                                              ; preds = %253, %204
  %256 = phi ptr [ %205, %204 ], [ %254, %253 ]
  br label %257

257:                                              ; preds = %255, %198
  %258 = phi ptr [ %199, %198 ], [ %256, %255 ]
  br label %259

259:                                              ; preds = %257, %192
  %260 = phi ptr [ %193, %192 ], [ %258, %257 ]
  br label %261

261:                                              ; preds = %259, %186
  %262 = phi ptr [ %187, %186 ], [ %260, %259 ]
  br label %263

263:                                              ; preds = %261, %180
  %264 = phi ptr [ %181, %180 ], [ %262, %261 ]
  br label %265

265:                                              ; preds = %263, %174
  %266 = phi ptr [ %175, %174 ], [ %264, %263 ]
  br label %267

267:                                              ; preds = %265, %168
  %268 = phi ptr [ %169, %168 ], [ %266, %265 ]
  br label %269

269:                                              ; preds = %267, %162
  %270 = phi ptr [ %163, %162 ], [ %268, %267 ]
  br label %271

271:                                              ; preds = %269, %156
  %272 = phi ptr [ %157, %156 ], [ %270, %269 ]
  br label %273

273:                                              ; preds = %271, %150
  %274 = phi ptr [ %151, %150 ], [ %272, %271 ]
  br label %275

275:                                              ; preds = %273, %144
  %276 = phi ptr [ %145, %144 ], [ %274, %273 ]
  br label %277

277:                                              ; preds = %275, %138
  %278 = phi ptr [ %139, %138 ], [ %276, %275 ]
  br label %279

279:                                              ; preds = %277, %132
  %280 = phi ptr [ %133, %132 ], [ %278, %277 ]
  br label %281

281:                                              ; preds = %279, %126
  %282 = phi ptr [ %127, %126 ], [ %280, %279 ]
  br label %283

283:                                              ; preds = %281, %120
  %284 = phi ptr [ %121, %120 ], [ %282, %281 ]
  br label %285

285:                                              ; preds = %283, %114
  %286 = phi ptr [ %115, %114 ], [ %284, %283 ]
  br label %287

287:                                              ; preds = %285, %108
  %288 = phi ptr [ %109, %108 ], [ %286, %285 ]
  br label %289

289:                                              ; preds = %287, %102
  %290 = phi ptr [ %103, %102 ], [ %288, %287 ]
  br label %291

291:                                              ; preds = %289, %96
  %292 = phi ptr [ %97, %96 ], [ %290, %289 ]
  br label %293

293:                                              ; preds = %291, %90
  %294 = phi ptr [ %91, %90 ], [ %292, %291 ]
  br label %295

295:                                              ; preds = %293, %84
  %296 = phi ptr [ %85, %84 ], [ %294, %293 ]
  br label %297

297:                                              ; preds = %295, %78
  %298 = phi ptr [ %79, %78 ], [ %296, %295 ]
  br label %299

299:                                              ; preds = %297, %72
  %300 = phi ptr [ %73, %72 ], [ %298, %297 ]
  br label %301

301:                                              ; preds = %299, %66
  %302 = phi ptr [ %67, %66 ], [ %300, %299 ]
  br label %303

303:                                              ; preds = %301, %60
  %304 = phi ptr [ %61, %60 ], [ %302, %301 ]
  br label %305

305:                                              ; preds = %303, %54
  %306 = phi ptr [ %55, %54 ], [ %304, %303 ]
  br label %312

307:                                              ; preds = %2
  %308 = load i32, ptr %6, align 4, !tbaa !32
  %309 = add i32 %308, 1
  %310 = zext i32 %309 to i64
  %311 = call noalias ptr @_emalloc(i64 noundef %310) #14
  br label %312

312:                                              ; preds = %307, %305
  %313 = phi ptr [ %306, %305 ], [ %311, %307 ]
  %314 = load ptr, ptr %4, align 8, !tbaa !4
  %315 = getelementptr inbounds nuw %struct._timelib_tzinfo, ptr %314, i32 0, i32 9
  %316 = getelementptr inbounds nuw %struct._tlocinfo, ptr %315, i32 0, i32 3
  store ptr %313, ptr %316, align 8, !tbaa !23
  %317 = load ptr, ptr %4, align 8, !tbaa !4
  %318 = getelementptr inbounds nuw %struct._timelib_tzinfo, ptr %317, i32 0, i32 9
  %319 = getelementptr inbounds nuw %struct._tlocinfo, ptr %318, i32 0, i32 3
  %320 = load ptr, ptr %319, align 8, !tbaa !23
  %321 = load ptr, ptr %3, align 8, !tbaa !84
  %322 = load ptr, ptr %321, align 8, !tbaa !31
  %323 = load i32, ptr %6, align 4, !tbaa !32
  %324 = zext i32 %323 to i64
  call void @llvm.memcpy.p0.p0.i64(ptr align 1 %320, ptr align 1 %322, i64 %324, i1 false)
  %325 = load ptr, ptr %4, align 8, !tbaa !4
  %326 = getelementptr inbounds nuw %struct._timelib_tzinfo, ptr %325, i32 0, i32 9
  %327 = getelementptr inbounds nuw %struct._tlocinfo, ptr %326, i32 0, i32 3
  %328 = load ptr, ptr %327, align 8, !tbaa !23
  %329 = load i32, ptr %6, align 4, !tbaa !32
  %330 = zext i32 %329 to i64
  %331 = getelementptr inbounds nuw i8, ptr %328, i64 %330
  store i8 0, ptr %331, align 1, !tbaa !36
  %332 = load i32, ptr %6, align 4, !tbaa !32
  %333 = load ptr, ptr %3, align 8, !tbaa !84
  %334 = load ptr, ptr %333, align 8, !tbaa !31
  %335 = zext i32 %332 to i64
  %336 = getelementptr inbounds nuw i8, ptr %334, i64 %335
  store ptr %336, ptr %333, align 8, !tbaa !31
  call void @llvm.lifetime.end.p0(i64 4, ptr %6) #11
  call void @llvm.lifetime.end.p0(i64 12, ptr %5) #11
  ret void
}