; Function Attrs: nounwind uwtable
define internal fastcc void @read_location(ptr noundef nonnull captures(none) %0, ptr noundef writeonly captures(none) initializes((136, 160)) %1) unnamed_addr #0 {
  %3 = load ptr, ptr %0, align 8, !tbaa !80
  %.sroa.0.0.copyload = load i32, ptr %3, align 1
  %.sroa.4.0..sroa_idx = getelementptr inbounds nuw i8, ptr %3, i64 4
  %.sroa.4.0.copyload = load i32, ptr %.sroa.4.0..sroa_idx, align 1
  %.sroa.5.0..sroa_idx = getelementptr inbounds nuw i8, ptr %3, i64 8
  %.sroa.5.0.copyload = load i32, ptr %.sroa.5.0..sroa_idx, align 1
  %4 = tail call noundef i32 @llvm.bswap.i32(i32 %.sroa.0.0.copyload)
  %5 = uitofp i32 %4 to double
  %6 = getelementptr inbounds nuw i8, ptr %1, i64 136
  %7 = fdiv double %5, 1.000000e+05
  %8 = fadd double %7, -9.000000e+01
  store double %8, ptr %6, align 8, !tbaa !4
  %9 = tail call noundef i32 @llvm.bswap.i32(i32 %.sroa.4.0.copyload)
  %10 = uitofp i32 %9 to double
  %11 = getelementptr inbounds nuw i8, ptr %1, i64 144
  %12 = fdiv double %10, 1.000000e+05
  %13 = fadd double %12, -1.800000e+02
  store double %13, ptr %11, align 8, !tbaa !20
  %14 = tail call noundef i32 @llvm.bswap.i32(i32 %.sroa.5.0.copyload)
  %15 = getelementptr inbounds nuw i8, ptr %3, i64 12
  store ptr %15, ptr %0, align 8, !tbaa !80
  %16 = add i32 %14, 1
  %17 = zext i32 %16 to i64
  %18 = tail call noalias ptr @_emalloc(i64 noundef %17) #18
  %19 = getelementptr inbounds nuw i8, ptr %1, i64 152
  store ptr %18, ptr %19, align 8, !tbaa !21
  %20 = load ptr, ptr %0, align 8, !tbaa !80
  %21 = zext i32 %14 to i64
  tail call void @llvm.memcpy.p0.p0.i64(ptr align 1 %18, ptr align 1 %20, i64 %21, i1 false)
  %22 = getelementptr inbounds nuw i8, ptr %18, i64 %21
  store i8 0, ptr %22, align 1, !tbaa !57
  %23 = getelementptr inbounds nuw i8, ptr %20, i64 %21
  store ptr %23, ptr %0, align 8, !tbaa !80
  ret void
}